Certificate:
    Data:
        Version: 3 (0x2)
        Serial Number: 1 (0x1)
        Signature Algorithm: sha256WithRSAEncryption
        Issuer: CN=QUIC Server Root CA
        Validity
            Not Before: Apr 10 06:56:56 2020 GMT
            Not After : Apr 13 06:56:56 2020 GMT
        Subject: C=US, ST=California, L=Mountain View, O=QUIC Server, CN=127.0.0.1
        Subject Public Key Info:
            Public Key Algorithm: rsaEncryption
                RSA Public-Key: (2048 bit)
                Modulus:
                    00:ae:84:76:35:43:f4:4a:02:9f:6b:15:37:d1:d9:
                    fa:f2:18:f2:3b:4c:9d:56:26:8c:28:97:2f:d8:95:
                    c3:6c:bb:ae:9b:9d:52:5c:a2:24:a9:87:cb:bf:df:
                    fc:a7:79:ed:f6:dd:e9:d6:42:fb:31:cb:5a:d8:67:
                    74:62:ca:58:c9:ce:84:92:0c:23:84:c1:3e:9e:7b:
                    37:a6:05:70:c8:51:be:66:3c:7d:f9:1a:9f:b5:6c:
                    c4:ac:57:0d:e3:6e:f1:67:23:4f:b9:e5:4b:8f:c5:
                    3c:12:f0:49:15:19:e8:3e:31:25:c5:08:2f:e6:cc:
                    34:f8:02:2f:44:42:c4:ac:aa:56:a9:85:72:35:c8:
                    df:a5:60:1a:3d:6f:4c:df:aa:d4:7d:6e:c2:95:b5:
                    77:37:f6:60:55:3e:a5:6d:7b:51:6e:50:14:73:d0:
                    67:f8:ea:21:1b:9a:14:ed:d7:df:79:fb:fc:6c:91:
                    4f:34:ef:85:f4:7f:08:14:97:1c:0d:7b:86:1c:b2:
                    8f:d9:07:23:cc:ab:6c:f7:99:a8:00:2e:a3:a7:51:
                    64:e5:87:19:23:6e:19:9f:ae:ed:f8:dc:24:18:b2:
                    ed:70:50:99:4f:b3:d3:3f:46:87:7d:59:ff:51:c4:
                    03:a6:19:30:42:b8:31:ef:ea:29:55:18:54:5f:99:
                    63:d1
                Exponent: 65537 (0x10001)
        X509v3 extensions:
            X509v3 Basic Constraints: critical
                CA:FALSE
            X509v3 Subject Key Identifier: 
                18:59:03:9A:C2:7A:41:3C:73:43:E1:34:D4:78:3E:CD:9A:D7:6F:E4
            X509v3 Authority Key Identifier: 
                keyid:51:CE:E4:AC:1B:F7:DF:F6:0C:52:F7:D3:BA:0B:6D:F9:97:78:ED:5B

            X509v3 Extended Key Usage: 
                TLS Web Server Authentication, TLS Web Client Authentication
            X509v3 Subject Alternative Name: 
                DNS:www.example.org, DNS:mail.example.org, DNS:mail.example.com, IP Address:127.0.0.1
    Signature Algorithm: sha256WithRSAEncryption
         09:6c:03:7e:06:f2:83:29:28:37:19:07:6b:f5:28:af:ea:52:
         af:39:8d:67:97:79:6e:d7:bd:6c:68:f9:bd:5d:33:68:55:89:
         ca:d4:1b:51:94:82:8e:ab:76:00:cb:a6:86:de:68:15:74:85:
         9e:f0:1e:46:1b:65:ca:38:a9:32:98:f5:f7:ef:2c:6d:20:d2:
         98:b6:a8:53:fc:b2:0a:78:33:89:f4:34:d8:58:91:09:f7:76:
         16:c8:ea:be:77:4d:c7:94:cb:6a:f2:a0:8e:ca:cf:26:68:f4:
         b8:16:8f:33:a4:2c:f8:b6:be:ea:39:33:5d:0c:ca:dc:29:17:
         ad:ed:4c:66:25:4c:8a:4f:50:59:69:0c:59:6b:a1:52:a2:7d:
         a2:35:ae:bd:e3:9c:b9:c7:0d:03:ba:94:09:c4:36:ff:19:68:
         60:47:70:78:2e:34:f0:fa:ca:d1:97:ea:8a:5e:5c:25:ca:b2:
         65:8f:06:24:b4:78:2f:ac:95:d4:29:3d:23:22:8d:7d:c8:15:
         3e:10:1e:bd:9e:28:5a:b3:c6:ae:4d:ec:0c:76:bd:b2:6c:69:
         aa:75:4e:1f:f6:f1:5f:12:37:36:c9:5a:9d:57:b8:b8:89:7b:
         e6:de:e8:6a:3b:00:f0:0c:a1:0a:5a:11:0b:ed:85:54:21:59:
         2b:e9:33:cd
-----BEGIN CERTIFICATE-----
MIIDtDCCApygAwIBAgIBATANBgkqhkiG9w0BAQsFADAeMRwwGgYDVQQDDBNRVUlD
IFNlcnZlciBSb290IENBMB4XDTIwMDQxMDA2NTY1NloXDTIwMDQxMzA2NTY1Nlow
ZDELMAkGA1UEBhMCVVMxEzARBgNVBAgMCkNhbGlmb3JuaWExFjAUBgNVBAcMDU1v
dW50YWluIFZpZXcxFDASBgNVBAoMC1FVSUMgU2VydmVyMRIwEAYDVQQDDAkxMjcu
MC4wLjEwggEiMA0GCSqGSIb3DQEBAQUAA4IBDwAwggEKAoIBAQCuhHY1Q/RKAp9r
FTfR2fryGPI7TJ1WJowoly/YlcNsu66bnVJcoiSph8u/3/ynee323enWQvsxy1rY
Z3RiyljJzoSSDCOEwT6eezemBXDIUb5mPH35Gp+1bMSsVw3jbvFnI0+55UuPxTwS
8EkVGeg+MSXFCC/mzDT4Ai9EQsSsqlaphXI1yN+lYBo9b0zfqtR9bsKVtXc39mBV
PqVte1FuUBRz0Gf46iEbmhTt1995+/xskU8074X0fwgUlxwNe4Ycso/ZByPMq2z3
magALqOnUWTlhxkjbhmfru343CQYsu1wUJlPs9M/Rod9Wf9RxAOmGTBCuDHv6ilV
GFRfmWPRAgMBAAGjgbYwgbMwDAYDVR0TAQH/BAIwADAdBgNVHQ4EFgQUGFkDmsJ6
QTxzQ+E01Hg+zZrXb+QwHwYDVR0jBBgwFoAUUc7krBv33/YMUvfTugtt+Zd47Vsw
HQYDVR0lBBYwFAYIKwYBBQUHAwEGCCsGAQUFBwMCMEQGA1UdEQQ9MDuCD3d3dy5l
eGFtcGxlLm9yZ4IQbWFpbC5leGFtcGxlLm9yZ4IQbWFpbC5leGFtcGxlLmNvbYcE
fwAAATANBgkqhkiG9w0BAQsFAAOCAQEACWwDfgbygykoNxkHa/Uor+pSrzmNZ5d5
bte9bGj5vV0zaFWJytQbUZSCjqt2AMumht5oFXSFnvAeRhtlyjipMpj19+8sbSDS
mLaoU/yyCngzifQ02FiRCfd2FsjqvndNx5TLavKgjsrPJmj0uBaPM6Qs+La+6jkz
XQzK3CkXre1MZiVMik9QWWkMWWuhUqJ9ojWuveOcuccNA7qUCcQ2/xloYEdweC40
8PrK0Zfqil5cJcqyZY8GJLR4L6yV1Ck9IyKNfcgVPhAevZ4oWrPGrk3sDHa9smxp
qnVOH/bxXxI3NslanVe4uIl75t7oajsA8AyhCloRC+2FVCFZK+kzzQ==
-----END CERTIFICATE-----
